; ModuleID = '30/1486.c'
source_filename = "30/1486.c"
target datalayout = "e-m:e-p270:32:32-p271:32:32-p272:64:64-i64:64-f80:128-n8:16:32:64-S128"
target triple = "x86_64-pc-linux-gnu"

@.str = private unnamed_addr constant [3 x i8] c"%d\00", align 1

; Function Attrs: noinline nounwind uwtable
define dso_local i32 @main() #0 {
  %1 = alloca i32, align 4
  %2 = alloca [100 x [4 x i32]], align 16
  %3 = alloca i32, align 4
  %4 = alloca i32, align 4
  %5 = alloca i32, align 4
  %6 = alloca i32, align 4
  store i32 0, i32* %1, align 4
  store i32 0, i32* %6, align 4
  %7 = call i32 (i8*, ...) @__isoc99_scanf(i8* getelementptr inbounds ([3 x i8], [3 x i8]* @.str, i64 0, i64 0), i32* %5)
  store i32 1, i32* %3, align 4
  br label %8

8:                                                ; preds = %67, %0
  %9 = load i32, i32* %3, align 4
  %10 = load i32, i32* %5, align 4
  %11 = icmp sle i32 %9, %10
  br i1 %11, label %12, label %70

12:                                               ; preds = %8
  %13 = load i32, i32* %3, align 4
  %14 = srem i32 %13, 10
  %15 = load i32, i32* %3, align 4
  %16 = sext i32 %15 to i64
  %17 = getelementptr inbounds [100 x [4 x i32]], [100 x [4 x i32]]* %2, i64 0, i64 %16
  %18 = getelementptr inbounds [4 x i32], [4 x i32]* %17, i64 0, i64 2
  store i32 %14, i32* %18, align 8
  %19 = load i32, i32* %3, align 4
  %20 = load i32, i32* %3, align 4
  %21 = sext i32 %20 to i64
  %22 = getelementptr inbounds [100 x [4 x i32]], [100 x [4 x i32]]* %2, i64 0, i64 %21
  %23 = getelementptr inbounds [4 x i32], [4 x i32]* %22, i64 0, i64 2
  %24 = load i32, i32* %23, align 8
  %25 = sub nsw i32 %19, %24
  %26 = sdiv i32 %25, 10
  %27 = load i32, i32* %3, align 4
  %28 = sext i32 %27 to i64
  %29 = getelementptr inbounds [100 x [4 x i32]], [100 x [4 x i32]]* %2, i64 0, i64 %28
  %30 = getelementptr inbounds [4 x i32], [4 x i32]* %29, i64 0, i64 1
  store i32 %26, i32* %30, align 4
  %31 = load i32, i32* %3, align 4
  %32 = icmp slt i32 %31, 7
  br i1 %32, label %33, label %39

33:                                               ; preds = %12
  %34 = load i32, i32* %3, align 4
  %35 = load i32, i32* %3, align 4
  %36 = mul nsw i32 %34, %35
  %37 = load i32, i32* %6, align 4
  %38 = add nsw i32 %37, %36
  store i32 %38, i32* %6, align 4
  br label %66

39:                                               ; preds = %12
  %40 = load i32, i32* %3, align 4
  %41 = srem i32 %40, 7
  %42 = icmp eq i32 %41, 0
  br i1 %42, label %57, label %43

43:                                               ; preds = %39
  %44 = load i32, i32* %3, align 4
  %45 = sext i32 %44 to i64
  %46 = getelementptr inbounds [100 x [4 x i32]], [100 x [4 x i32]]* %2, i64 0, i64 %45
  %47 = getelementptr inbounds [4 x i32], [4 x i32]* %46, i64 0, i64 1
  %48 = load i32, i32* %47, align 4
  %49 = icmp eq i32 %48, 7
  br i1 %49, label %57, label %50

50:                                               ; preds = %43
  %51 = load i32, i32* %3, align 4
  %52 = sext i32 %51 to i64
  %53 = getelementptr inbounds [100 x [4 x i32]], [100 x [4 x i32]]* %2, i64 0, i64 %52
  %54 = getelementptr inbounds [4 x i32], [4 x i32]* %53, i64 0, i64 2
  %55 = load i32, i32* %54, align 8
  %56 = icmp eq i32 %55, 7
  br i1 %56, label %57, label %59

57:                                               ; preds = %50, %43, %39
  %58 = load i32, i32* %6, align 4
  store i32 %58, i32* %6, align 4
  br label %65

59:                                               ; preds = %50
  %60 = load i32, i32* %3, align 4
  %61 = load i32, i32* %3, align 4
  %62 = mul nsw i32 %60, %61
  %63 = load i32, i32* %6, align 4
  %64 = add nsw i32 %63, %62
  store i32 %64, i32* %6, align 4
  br label %65

65:                                               ; preds = %59, %57
  br label %66

66:                                               ; preds = %65, %33
  br label %67

67:                                               ; preds = %66
  %68 = load i32, i32* %3, align 4
  %69 = add nsw i32 %68, 1
  store i32 %69, i32* %3, align 4
  br label %8

70:                                               ; preds = %8
  %71 = load i32, i32* %6, align 4
  %72 = call i32 (i8*, ...) @printf(i8* getelementptr inbounds ([3 x i8], [3 x i8]* @.str, i64 0, i64 0), i32 %71)
  ret i32 0
}

declare dso_local i32 @__isoc99_scanf(i8*, ...) #1

declare dso_local i32 @printf(i8*, ...) #1


!llvm.module.flags = !{!0}
!llvm.ident = !{!1}

!0 = !{i32 1, !"wchar_size", i32 4}
!1 = !{!"clang version 10.0.0-4ubuntu1 "}
